target datalayout = "e-m:e-p270:32:32-p271:32:32-p272:64:64-i64:64-i128:128-f80:128-n8:16:32:64-S128"
target triple = "x86_64-pc-linux-gnu"

@.str.23 = private unnamed_addr constant [1 x i8] zeroinitializer, align 1
@.str.121 = private unnamed_addr constant [15 x i8] c"error_tolerant\00", align 1
@.str.122 = private unnamed_addr constant [8 x i8] c"comment\00", align 1
@.str.123 = private unnamed_addr constant [9 x i8] c"optimize\00", align 1
@.str.124 = private unnamed_addr constant [37 x i8] c"don't know how to dump with%s '%.*s'\00", align 1
@.str.125 = private unnamed_addr constant [4 x i8] c"out\00", align 1

; Function Attrs: inlinehint nounwind sspstrong willreturn memory(none) uwtable
define internal i32 @rb_islower(i32 noundef %0) #13 {
  %2 = alloca i32, align 4
  store i32 %0, ptr %2, align 4, !tbaa !12
  %3 = load i32, ptr %2, align 4, !tbaa !12
  %4 = icmp sle i32 97, %3
  br i1 %4, label %5, label %8

5:                                                ; preds = %1
  %6 = load i32, ptr %2, align 4, !tbaa !12
  %7 = icmp sle i32 %6, 122
  br label %8

8:                                                ; preds = %5, %1
  %9 = phi i1 [ false, %1 ], [ %7, %5 ]
  %10 = zext i1 %9 to i32
  ret i32 %10
}

; Function Attrs: inlinehint nounwind sspstrong willreturn memory(none) uwtable
define internal i32 @rb_isdigit(i32 noundef %0) #13 {
  %2 = alloca i32, align 4
  store i32 %0, ptr %2, align 4, !tbaa !12
  %3 = load i32, ptr %2, align 4, !tbaa !12
  %4 = icmp sle i32 48, %3
  br i1 %4, label %5, label %8

5:                                                ; preds = %1
  %6 = load i32, ptr %2, align 4, !tbaa !12
  %7 = icmp sle i32 %6, 57
  br label %8

8:                                                ; preds = %5, %1
  %9 = phi i1 [ false, %1 ], [ %7, %5 ]
  %10 = zext i1 %9 to i32
  ret i32 %10
}

; Function Attrs: inlinehint nounwind sspstrong willreturn memory(none) uwtable
define internal i32 @rb_isalpha(i32 noundef %0) #13 {
  %2 = alloca i32, align 4
  store i32 %0, ptr %2, align 4, !tbaa !12
  %3 = load i32, ptr %2, align 4, !tbaa !12
  %4 = call i32 @rb_isupper(i32 noundef %3) #27
  %5 = icmp ne i32 %4, 0
  br i1 %5, label %10, label %6

6:                                                ; preds = %1
  %7 = load i32, ptr %2, align 4, !tbaa !12
  %8 = call i32 @rb_islower(i32 noundef %7) #27
  %9 = icmp ne i32 %8, 0
  br label %10

10:                                               ; preds = %6, %1
  %11 = phi i1 [ true, %1 ], [ %9, %6 ]
  %12 = zext i1 %11 to i32
  ret i32 %12
}

; Function Attrs: inlinehint nounwind sspstrong willreturn memory(none) uwtable
define internal i32 @rb_isupper(i32 noundef %0) #13 {
  %2 = alloca i32, align 4
  store i32 %0, ptr %2, align 4, !tbaa !12
  %3 = load i32, ptr %2, align 4, !tbaa !12
  %4 = icmp sle i32 65, %3
  br i1 %4, label %5, label %8

5:                                                ; preds = %1
  %6 = load i32, ptr %2, align 4, !tbaa !12
  %7 = icmp sle i32 %6, 90
  br label %8

8:                                                ; preds = %5, %1
  %9 = phi i1 [ false, %1 ], [ %7, %5 ]
  %10 = zext i1 %9 to i32
  ret i32 %10
}

; Function Attrs: inlinehint nounwind sspstrong willreturn memory(none) uwtable
define internal i32 @rb_isalnum(i32 noundef %0) #13 {
  %2 = alloca i32, align 4
  store i32 %0, ptr %2, align 4, !tbaa !12
  %3 = load i32, ptr %2, align 4, !tbaa !12
  %4 = call i32 @rb_isalpha(i32 noundef %3) #27
  %5 = icmp ne i32 %4, 0
  br i1 %5, label %10, label %6

6:                                                ; preds = %1
  %7 = load i32, ptr %2, align 4, !tbaa !12
  %8 = call i32 @rb_isdigit(i32 noundef %7) #27
  %9 = icmp ne i32 %8, 0
  br label %10

10:                                               ; preds = %6, %1
  %11 = phi i1 [ true, %1 ], [ %9, %6 ]
  %12 = zext i1 %11 to i32
  ret i32 %12
}

; Function Attrs: inlinehint nounwind sspstrong willreturn memory(none) uwtable
define internal i32 @rb_tolower(i32 noundef %0) #13 {
  %2 = alloca i32, align 4
  store i32 %0, ptr %2, align 4, !tbaa !12
  %3 = load i32, ptr %2, align 4, !tbaa !12
  %4 = call i32 @rb_isupper(i32 noundef %3) #27
  %5 = icmp ne i32 %4, 0
  br i1 %5, label %6, label %9

6:                                                ; preds = %1
  %7 = load i32, ptr %2, align 4, !tbaa !12
  %8 = or i32 %7, 32
  br label %11

9:                                                ; preds = %1
  %10 = load i32, ptr %2, align 4, !tbaa !12
  br label %11

11:                                               ; preds = %9, %6
  %12 = phi i32 [ %8, %6 ], [ %10, %9 ]
  ret i32 %12
}

; Function Attrs: nounwind sspstrong uwtable
define internal i32 @name_match_p(ptr noundef %0, ptr noundef %1, i64 noundef %2) #0 {
  %4 = alloca i32, align 4
  %5 = alloca ptr, align 8
  %6 = alloca ptr, align 8
  %7 = alloca i64, align 8
  store ptr %0, ptr %5, align 8, !tbaa !7
  store ptr %1, ptr %6, align 8, !tbaa !7
  store i64 %2, ptr %7, align 8, !tbaa !42
  %8 = load i64, ptr %7, align 8, !tbaa !42
  %9 = icmp eq i64 %8, 0
  br i1 %9, label %10, label %11

10:                                               ; preds = %3
  store i32 0, ptr %4, align 4
  br label %78

11:                                               ; preds = %3
  br label %12

12:                                               ; preds = %11, %77
  br label %13

13:                                               ; preds = %27, %12
  %14 = load ptr, ptr %6, align 8, !tbaa !7
  %15 = load i8, ptr %14, align 1, !tbaa !14
  %16 = sext i8 %15 to i32
  %17 = call i32 @rb_tolower(i32 noundef %16) #27
  %18 = load ptr, ptr %5, align 8, !tbaa !7
  %19 = load i8, ptr %18, align 1, !tbaa !14
  %20 = sext i8 %19 to i32
  %21 = icmp eq i32 %17, %20
  br i1 %21, label %22, label %32

22:                                               ; preds = %13
  %23 = load i64, ptr %7, align 8, !tbaa !42
  %24 = add i64 %23, -1
  store i64 %24, ptr %7, align 8, !tbaa !42
  %25 = icmp ne i64 %24, 0
  br i1 %25, label %27, label %26

26:                                               ; preds = %22
  store i32 1, ptr %4, align 4
  br label %78

27:                                               ; preds = %22
  %28 = load ptr, ptr %5, align 8, !tbaa !7
  %29 = getelementptr i8, ptr %28, i32 1
  store ptr %29, ptr %5, align 8, !tbaa !7
  %30 = load ptr, ptr %6, align 8, !tbaa !7
  %31 = getelementptr i8, ptr %30, i32 1
  store ptr %31, ptr %6, align 8, !tbaa !7
  br label %13, !llvm.loop !166

32:                                               ; preds = %13
  %33 = load ptr, ptr %6, align 8, !tbaa !7
  %34 = load i8, ptr %33, align 1, !tbaa !14
  %35 = sext i8 %34 to i32
  %36 = icmp ne i32 %35, 45
  br i1 %36, label %37, label %43

37:                                               ; preds = %32
  %38 = load ptr, ptr %6, align 8, !tbaa !7
  %39 = load i8, ptr %38, align 1, !tbaa !14
  %40 = sext i8 %39 to i32
  %41 = icmp ne i32 %40, 95
  br i1 %41, label %42, label %43

42:                                               ; preds = %37
  store i32 0, ptr %4, align 4
  br label %78

43:                                               ; preds = %37, %32
  br label %44

44:                                               ; preds = %50, %43
  %45 = load ptr, ptr %5, align 8, !tbaa !7
  %46 = load i8, ptr %45, align 1, !tbaa !14
  %47 = sext i8 %46 to i32
  %48 = call i32 @rb_isalnum(i32 noundef %47) #27
  %49 = icmp ne i32 %48, 0
  br i1 %49, label %50, label %53

50:                                               ; preds = %44
  %51 = load ptr, ptr %5, align 8, !tbaa !7
  %52 = getelementptr i8, ptr %51, i32 1
  store ptr %52, ptr %5, align 8, !tbaa !7
  br label %44, !llvm.loop !167

53:                                               ; preds = %44
  %54 = load ptr, ptr %5, align 8, !tbaa !7
  %55 = load i8, ptr %54, align 1, !tbaa !14
  %56 = sext i8 %55 to i32
  %57 = icmp ne i32 %56, 45
  br i1 %57, label %58, label %64

58:                                               ; preds = %53
  %59 = load ptr, ptr %5, align 8, !tbaa !7
  %60 = load i8, ptr %59, align 1, !tbaa !14
  %61 = sext i8 %60 to i32
  %62 = icmp ne i32 %61, 95
  br i1 %62, label %63, label %64

63:                                               ; preds = %58
  store i32 0, ptr %4, align 4
  br label %78

64:                                               ; preds = %58, %53
  %65 = load ptr, ptr %5, align 8, !tbaa !7
  %66 = getelementptr i8, ptr %65, i32 1
  store ptr %66, ptr %5, align 8, !tbaa !7
  %67 = load i8, ptr %66, align 1, !tbaa !14
  %68 = icmp ne i8 %67, 0
  br i1 %68, label %70, label %69

69:                                               ; preds = %64
  store i32 1, ptr %4, align 4
  br label %78

70:                                               ; preds = %64
  %71 = load ptr, ptr %6, align 8, !tbaa !7
  %72 = getelementptr i8, ptr %71, i32 1
  store ptr %72, ptr %6, align 8, !tbaa !7
  %73 = load i64, ptr %7, align 8, !tbaa !42
  %74 = add i64 %73, -1
  store i64 %74, ptr %7, align 8, !tbaa !42
  %75 = icmp eq i64 %74, 0
  br i1 %75, label %76, label %77

76:                                               ; preds = %70
  store i32 1, ptr %4, align 4
  br label %78

77:                                               ; preds = %70
  br label %12

78:                                               ; preds = %76, %69, %63, %42, %26, %10
  %79 = load i32, ptr %4, align 4
  ret i32 %79
}

; Function Attrs: nounwind sspstrong uwtable
define internal i32 @dump_additional_option_flag(ptr noundef %0, i32 noundef %1, i32 noundef %2, i1 noundef zeroext %3) #0 {
  %5 = alloca i32, align 4
  %6 = alloca ptr, align 8
  %7 = alloca i32, align 4
  %8 = alloca i32, align 4
  %9 = alloca i8, align 1
  store ptr %0, ptr %6, align 8, !tbaa !7
  store i32 %1, ptr %7, align 4, !tbaa !12
  store i32 %2, ptr %8, align 4, !tbaa !12
  %10 = zext i1 %3 to i8
  store i8 %10, ptr %9, align 1, !tbaa !81
  %11 = load i32, ptr %7, align 4, !tbaa !12
  %12 = icmp slt i32 %11, 15
  br i1 %12, label %13, label %30

13:                                               ; preds = %4
  %14 = load ptr, ptr %6, align 8, !tbaa !7
  %15 = load i32, ptr %7, align 4, !tbaa !12
  %16 = sext i32 %15 to i64
  %17 = call i32 @name_match_p(ptr noundef @.str.121, ptr noundef %14, i64 noundef %16)
  %18 = icmp ne i32 %17, 0
  br i1 %18, label %19, label %30

19:                                               ; preds = %13
  %20 = load i8, ptr %9, align 1, !tbaa !81, !range !94, !noundef !95
  %21 = trunc i8 %20 to i1
  br i1 %21, label %22, label %25

22:                                               ; preds = %19
  %23 = load i32, ptr %8, align 4, !tbaa !12
  %24 = or i32 %23, 2
  br label %28

25:                                               ; preds = %19
  %26 = load i32, ptr %8, align 4, !tbaa !12
  %27 = and i32 %26, -3
  br label %28

28:                                               ; preds = %25, %22
  %29 = phi i32 [ %24, %22 ], [ %27, %25 ]
  store i32 %29, ptr %5, align 4
  br label %77

30:                                               ; preds = %13, %4
  %31 = load i32, ptr %7, align 4, !tbaa !12
  %32 = icmp slt i32 %31, 8
  br i1 %32, label %33, label %50

33:                                               ; preds = %30
  %34 = load ptr, ptr %6, align 8, !tbaa !7
  %35 = load i32, ptr %7, align 4, !tbaa !12
  %36 = sext i32 %35 to i64
  %37 = call i32 @name_match_p(ptr noundef @.str.122, ptr noundef %34, i64 noundef %36)
  %38 = icmp ne i32 %37, 0
  br i1 %38, label %39, label %50

39:                                               ; preds = %33
  %40 = load i8, ptr %9, align 1, !tbaa !81, !range !94, !noundef !95
  %41 = trunc i8 %40 to i1
  br i1 %41, label %42, label %45

42:                                               ; preds = %39
  %43 = load i32, ptr %8, align 4, !tbaa !12
  %44 = or i32 %43, 4
  br label %48

45:                                               ; preds = %39
  %46 = load i32, ptr %8, align 4, !tbaa !12
  %47 = and i32 %46, -5
  br label %48

48:                                               ; preds = %45, %42
  %49 = phi i32 [ %44, %42 ], [ %47, %45 ]
  store i32 %49, ptr %5, align 4
  br label %77

50:                                               ; preds = %33, %30
  %51 = load i32, ptr %7, align 4, !tbaa !12
  %52 = icmp slt i32 %51, 9
  br i1 %52, label %53, label %70

53:                                               ; preds = %50
  %54 = load ptr, ptr %6, align 8, !tbaa !7
  %55 = load i32, ptr %7, align 4, !tbaa !12
  %56 = sext i32 %55 to i64
  %57 = call i32 @name_match_p(ptr noundef @.str.123, ptr noundef %54, i64 noundef %56)
  %58 = icmp ne i32 %57, 0
  br i1 %58, label %59, label %70

59:                                               ; preds = %53
  %60 = load i8, ptr %9, align 1, !tbaa !81, !range !94, !noundef !95
  %61 = trunc i8 %60 to i1
  br i1 %61, label %62, label %65

62:                                               ; preds = %59
  %63 = load i32, ptr %8, align 4, !tbaa !12
  %64 = or i32 %63, 8
  br label %68

65:                                               ; preds = %59
  %66 = load i32, ptr %8, align 4, !tbaa !12
  %67 = and i32 %66, -9
  br label %68

68:                                               ; preds = %65, %62
  %69 = phi i32 [ %64, %62 ], [ %67, %65 ]
  store i32 %69, ptr %5, align 4
  br label %77

70:                                               ; preds = %53, %50
  %71 = load i8, ptr %9, align 1, !tbaa !81, !range !94, !noundef !95
  %72 = trunc i8 %71 to i1
  %73 = select i1 %72, ptr @.str.23, ptr @.str.125
  %74 = load i32, ptr %7, align 4, !tbaa !12
  %75 = load ptr, ptr %6, align 8, !tbaa !7
  call void (ptr, ...) @rb_warn(ptr noundef @.str.124, ptr noundef %73, i32 noundef %74, ptr noundef %75) #28
  %76 = load i32, ptr %8, align 4, !tbaa !12
  store i32 %76, ptr %5, align 4
  br label %77

77:                                               ; preds = %70, %68, %48, %28
  %78 = load i32, ptr %5, align 4
  ret i32 %78
}