; Function Attrs: nounwind sspstrong uwtable
define internal fastcc i32 @dump_additional_option_flag(ptr noundef %0, i32 noundef %1, i32 noundef %2, i1 noundef zeroext %3) unnamed_addr #0 {
  %5 = icmp slt i32 %1, 15
  br i1 %5, label %6, label %.thread75

6:                                                ; preds = %4
  %7 = sext i32 %1 to i64
  %8 = icmp eq i32 %1, 0
  br i1 %8, label %.thread75, label %.preheader.i

.preheader.i:                                     ; preds = %6, %40
  %9 = phi i8 [ %41, %40 ], [ 101, %6 ]
  %.017.i = phi ptr [ %38, %40 ], [ @.str.121, %6 ]
  %.015.i = phi ptr [ %42, %40 ], [ %0, %6 ]
  %.0.i = phi i64 [ %43, %40 ], [ %7, %6 ]
  %10 = load i8, ptr %.015.i, align 1, !tbaa !7
  %11 = sext i8 %10 to i32
  %12 = add nsw i32 %11, -91
  %13 = icmp ult i32 %12, -26
  %14 = or i32 %11, 32
  %15 = select i1 %13, i32 %11, i32 %14
  %16 = sext i8 %9 to i32
  %17 = icmp eq i32 %15, %16
  br i1 %17, label %.lr.ph.i, label %._crit_edge.i

.lr.ph.i:                                         ; preds = %.preheader.i, %19
  %.141.i = phi i64 [ %18, %19 ], [ %.0.i, %.preheader.i ]
  %.11640.i = phi ptr [ %21, %19 ], [ %.015.i, %.preheader.i ]
  %.11839.i = phi ptr [ %20, %19 ], [ %.017.i, %.preheader.i ]
  %18 = add i64 %.141.i, -1
  %.not30.i = icmp eq i64 %18, 0
  br i1 %.not30.i, label %name_match_p.exit, label %19

19:                                               ; preds = %.lr.ph.i
  %20 = getelementptr i8, ptr %.11839.i, i64 1
  %21 = getelementptr i8, ptr %.11640.i, i64 1
  %22 = load i8, ptr %21, align 1, !tbaa !7
  %23 = sext i8 %22 to i32
  %24 = add nsw i32 %23, -91
  %25 = icmp ult i32 %24, -26
  %26 = or i32 %23, 32
  %27 = select i1 %25, i32 %23, i32 %26
  %28 = load i8, ptr %20, align 1, !tbaa !7
  %29 = sext i8 %28 to i32
  %30 = icmp eq i32 %27, %29
  br i1 %30, label %.lr.ph.i, label %._crit_edge.i, !llvm.loop !199

._crit_edge.i:                                    ; preds = %19, %.preheader.i
  %.118.lcssa.i = phi ptr [ %.017.i, %.preheader.i ], [ %20, %19 ]
  %.116.lcssa.i = phi ptr [ %.015.i, %.preheader.i ], [ %21, %19 ]
  %.1.lcssa.i = phi i64 [ %.0.i, %.preheader.i ], [ %18, %19 ]
  %.lcssa.i = phi i8 [ %10, %.preheader.i ], [ %22, %19 ]
  switch i8 %.lcssa.i, label %.loopexit [
    i8 45, label %.preheader182
    i8 95, label %.preheader182
  ]

.preheader182:                                    ; preds = %._crit_edge.i, %._crit_edge.i
  br label %31

31:                                               ; preds = %.preheader182, %31
  %.2.i = phi ptr [ %38, %31 ], [ %.118.lcssa.i, %.preheader182 ]
  %32 = load i8, ptr %.2.i, align 1, !tbaa !7
  %33 = sext i8 %32 to i32
  %34 = and i32 %33, -33
  %35 = add nsw i32 %34, -91
  %narrow.i.i.i = icmp ult i32 %35, -26
  %36 = add nsw i32 %33, -58
  %37 = icmp ult i32 %36, -10
  %narrow.i.not.i = select i1 %narrow.i.i.i, i1 %37, i1 false
  %38 = getelementptr i8, ptr %.2.i, i64 1
  br i1 %narrow.i.not.i, label %39, label %31, !llvm.loop !200

39:                                               ; preds = %31
  switch i8 %32, label %.loopexit [
    i8 45, label %40
    i8 95, label %40
  ]

40:                                               ; preds = %39, %39
  %41 = load i8, ptr %38, align 1, !tbaa !7
  %.not29.i = icmp eq i8 %41, 0
  %42 = getelementptr i8, ptr %.116.lcssa.i, i64 1
  %43 = add i64 %.1.lcssa.i, -1
  %44 = icmp eq i64 %43, 0
  %or.cond.i = select i1 %.not29.i, i1 true, i1 %44
  br i1 %or.cond.i, label %name_match_p.exit, label %.preheader.i

name_match_p.exit:                                ; preds = %40, %.lr.ph.i
  %45 = and i32 %2, -3
  %masksel26 = select i1 %3, i32 2, i32 0
  %46 = or disjoint i32 %masksel26, %45
  br label %126

.loopexit:                                        ; preds = %39, %._crit_edge.i
  %47 = icmp slt i32 %1, 8
  br i1 %47, label %.preheader.i28, label %name_match_p.exit48.thread

.preheader.i28:                                   ; preds = %.loopexit, %79
  %48 = phi i8 [ %80, %79 ], [ 99, %.loopexit ]
  %.017.i29 = phi ptr [ %77, %79 ], [ @.str.122, %.loopexit ]
  %.015.i30 = phi ptr [ %81, %79 ], [ %0, %.loopexit ]
  %.0.i31 = phi i64 [ %82, %79 ], [ %7, %.loopexit ]
  %49 = load i8, ptr %.015.i30, align 1, !tbaa !7
  %50 = sext i8 %49 to i32
  %51 = add nsw i32 %50, -91
  %52 = icmp ult i32 %51, -26
  %53 = or i32 %50, 32
  %54 = select i1 %52, i32 %50, i32 %53
  %55 = sext i8 %48 to i32
  %56 = icmp eq i32 %54, %55
  br i1 %56, label %.lr.ph.i43, label %._crit_edge.i32

.lr.ph.i43:                                       ; preds = %.preheader.i28, %58
  %.141.i44 = phi i64 [ %57, %58 ], [ %.0.i31, %.preheader.i28 ]
  %.11640.i45 = phi ptr [ %60, %58 ], [ %.015.i30, %.preheader.i28 ]
  %.11839.i46 = phi ptr [ %59, %58 ], [ %.017.i29, %.preheader.i28 ]
  %57 = add i64 %.141.i44, -1
  %.not30.i47 = icmp eq i64 %57, 0
  br i1 %.not30.i47, label %name_match_p.exit48, label %58

58:                                               ; preds = %.lr.ph.i43
  %59 = getelementptr i8, ptr %.11839.i46, i64 1
  %60 = getelementptr i8, ptr %.11640.i45, i64 1
  %61 = load i8, ptr %60, align 1, !tbaa !7
  %62 = sext i8 %61 to i32
  %63 = add nsw i32 %62, -91
  %64 = icmp ult i32 %63, -26
  %65 = or i32 %62, 32
  %66 = select i1 %64, i32 %62, i32 %65
  %67 = load i8, ptr %59, align 1, !tbaa !7
  %68 = sext i8 %67 to i32
  %69 = icmp eq i32 %66, %68
  br i1 %69, label %.lr.ph.i43, label %._crit_edge.i32, !llvm.loop !199

._crit_edge.i32:                                  ; preds = %58, %.preheader.i28
  %.118.lcssa.i33 = phi ptr [ %.017.i29, %.preheader.i28 ], [ %59, %58 ]
  %.116.lcssa.i34 = phi ptr [ %.015.i30, %.preheader.i28 ], [ %60, %58 ]
  %.1.lcssa.i35 = phi i64 [ %.0.i31, %.preheader.i28 ], [ %57, %58 ]
  %.lcssa.i36 = phi i8 [ %49, %.preheader.i28 ], [ %61, %58 ]
  switch i8 %.lcssa.i36, label %name_match_p.exit48.thread [
    i8 45, label %.preheader173
    i8 95, label %.preheader173
  ]

.preheader173:                                    ; preds = %._crit_edge.i32, %._crit_edge.i32
  br label %70

70:                                               ; preds = %.preheader173, %70
  %.2.i37 = phi ptr [ %77, %70 ], [ %.118.lcssa.i33, %.preheader173 ]
  %71 = load i8, ptr %.2.i37, align 1, !tbaa !7
  %72 = sext i8 %71 to i32
  %73 = and i32 %72, -33
  %74 = add nsw i32 %73, -91
  %narrow.i.i.i38 = icmp ult i32 %74, -26
  %75 = add nsw i32 %72, -58
  %76 = icmp ult i32 %75, -10
  %narrow.i.not.i39 = select i1 %narrow.i.i.i38, i1 %76, i1 false
  %77 = getelementptr i8, ptr %.2.i37, i64 1
  br i1 %narrow.i.not.i39, label %78, label %70, !llvm.loop !200

78:                                               ; preds = %70
  switch i8 %71, label %name_match_p.exit48.thread [
    i8 45, label %79
    i8 95, label %79
  ]

79:                                               ; preds = %78, %78
  %80 = load i8, ptr %77, align 1, !tbaa !7
  %.not29.i40 = icmp eq i8 %80, 0
  %81 = getelementptr i8, ptr %.116.lcssa.i34, i64 1
  %82 = add i64 %.1.lcssa.i35, -1
  %83 = icmp eq i64 %82, 0
  %or.cond.i41 = select i1 %.not29.i40, i1 true, i1 %83
  br i1 %or.cond.i41, label %name_match_p.exit48, label %.preheader.i28

name_match_p.exit48:                              ; preds = %79, %.lr.ph.i43
  %84 = and i32 %2, -5
  %masksel25 = select i1 %3, i32 4, i32 0
  %85 = or disjoint i32 %masksel25, %84
  br label %126

name_match_p.exit48.thread:                       ; preds = %._crit_edge.i32, %78, %.loopexit
  %86 = icmp sgt i32 %1, 8
  br i1 %86, label %.thread75, label %.preheader.i50

.preheader.i50:                                   ; preds = %name_match_p.exit48.thread, %118
  %87 = phi i8 [ %119, %118 ], [ 111, %name_match_p.exit48.thread ]
  %.017.i51 = phi ptr [ %116, %118 ], [ @.str.123, %name_match_p.exit48.thread ]
  %.015.i52 = phi ptr [ %120, %118 ], [ %0, %name_match_p.exit48.thread ]
  %.0.i53 = phi i64 [ %121, %118 ], [ %7, %name_match_p.exit48.thread ]
  %88 = load i8, ptr %.015.i52, align 1, !tbaa !7
  %89 = sext i8 %88 to i32
  %90 = add nsw i32 %89, -91
  %91 = icmp ult i32 %90, -26
  %92 = or i32 %89, 32
  %93 = select i1 %91, i32 %89, i32 %92
  %94 = sext i8 %87 to i32
  %95 = icmp eq i32 %93, %94
  br i1 %95, label %.lr.ph.i65, label %._crit_edge.i54

.lr.ph.i65:                                       ; preds = %.preheader.i50, %97
  %.141.i66 = phi i64 [ %96, %97 ], [ %.0.i53, %.preheader.i50 ]
  %.11640.i67 = phi ptr [ %99, %97 ], [ %.015.i52, %.preheader.i50 ]
  %.11839.i68 = phi ptr [ %98, %97 ], [ %.017.i51, %.preheader.i50 ]
  %96 = add i64 %.141.i66, -1
  %.not30.i69 = icmp eq i64 %96, 0
  br i1 %.not30.i69, label %name_match_p.exit70, label %97

97:                                               ; preds = %.lr.ph.i65
  %98 = getelementptr i8, ptr %.11839.i68, i64 1
  %99 = getelementptr i8, ptr %.11640.i67, i64 1
  %100 = load i8, ptr %99, align 1, !tbaa !7
  %101 = sext i8 %100 to i32
  %102 = add nsw i32 %101, -91
  %103 = icmp ult i32 %102, -26
  %104 = or i32 %101, 32
  %105 = select i1 %103, i32 %101, i32 %104
  %106 = load i8, ptr %98, align 1, !tbaa !7
  %107 = sext i8 %106 to i32
  %108 = icmp eq i32 %105, %107
  br i1 %108, label %.lr.ph.i65, label %._crit_edge.i54, !llvm.loop !199

._crit_edge.i54:                                  ; preds = %97, %.preheader.i50
  %.118.lcssa.i55 = phi ptr [ %.017.i51, %.preheader.i50 ], [ %98, %97 ]
  %.116.lcssa.i56 = phi ptr [ %.015.i52, %.preheader.i50 ], [ %99, %97 ]
  %.1.lcssa.i57 = phi i64 [ %.0.i53, %.preheader.i50 ], [ %96, %97 ]
  %.lcssa.i58 = phi i8 [ %88, %.preheader.i50 ], [ %100, %97 ]
  switch i8 %.lcssa.i58, label %.thread75 [
    i8 45, label %.preheader
    i8 95, label %.preheader
  ]

.preheader:                                       ; preds = %._crit_edge.i54, %._crit_edge.i54
  br label %109

109:                                              ; preds = %.preheader, %109
  %.2.i59 = phi ptr [ %116, %109 ], [ %.118.lcssa.i55, %.preheader ]
  %110 = load i8, ptr %.2.i59, align 1, !tbaa !7
  %111 = sext i8 %110 to i32
  %112 = and i32 %111, -33
  %113 = add nsw i32 %112, -91
  %narrow.i.i.i60 = icmp ult i32 %113, -26
  %114 = add nsw i32 %111, -58
  %115 = icmp ult i32 %114, -10
  %narrow.i.not.i61 = select i1 %narrow.i.i.i60, i1 %115, i1 false
  %116 = getelementptr i8, ptr %.2.i59, i64 1
  br i1 %narrow.i.not.i61, label %117, label %109, !llvm.loop !200

117:                                              ; preds = %109
  switch i8 %110, label %.thread75 [
    i8 45, label %118
    i8 95, label %118
  ]

118:                                              ; preds = %117, %117
  %119 = load i8, ptr %116, align 1, !tbaa !7
  %.not29.i62 = icmp eq i8 %119, 0
  %120 = getelementptr i8, ptr %.116.lcssa.i56, i64 1
  %121 = add i64 %.1.lcssa.i57, -1
  %122 = icmp eq i64 %121, 0
  %or.cond.i63 = select i1 %.not29.i62, i1 true, i1 %122
  br i1 %or.cond.i63, label %name_match_p.exit70, label %.preheader.i50

name_match_p.exit70:                              ; preds = %118, %.lr.ph.i65
  %123 = and i32 %2, -9
  %masksel = select i1 %3, i32 8, i32 0
  %124 = or disjoint i32 %masksel, %123
  br label %126

.thread75:                                        ; preds = %._crit_edge.i54, %117, %6, %4, %name_match_p.exit48.thread
  %125 = select i1 %3, ptr @.str.23, ptr @.str.125
  tail call void (ptr, ...) @rb_warn(ptr noundef nonnull @.str.124, ptr noundef nonnull %125, i32 noundef %1, ptr noundef %0) #28
  br label %126

126:                                              ; preds = %.thread75, %name_match_p.exit70, %name_match_p.exit48, %name_match_p.exit
  %.0 = phi i32 [ %46, %name_match_p.exit ], [ %85, %name_match_p.exit48 ], [ %124, %name_match_p.exit70 ], [ %2, %.thread75 ]
  ret i32 %.0
}